target datalayout = "e-m:e-p270:32:32-p271:32:32-p272:64:64-i64:64-i128:128-f80:128-n8:16:32:64-S128"
target triple = "x86_64-pc-linux-gnu"

%struct.AVInteger = type { [8 x i16] }

; Function Attrs: nounwind willreturn memory(none) uwtable
define { i64, i64 } @av_shr_i(i64 %0, i64 %1, i32 noundef %2) #0 {
  %4 = alloca %struct.AVInteger, align 2
  %5 = alloca %struct.AVInteger, align 2
  %6 = alloca i32, align 4
  %7 = alloca i32, align 4
  %8 = alloca i32, align 4
  %9 = alloca i32, align 4
  %10 = getelementptr inbounds nuw { i64, i64 }, ptr %5, i32 0, i32 0
  store i64 %0, ptr %10, align 2
  %11 = getelementptr inbounds nuw { i64, i64 }, ptr %5, i32 0, i32 1
  store i64 %1, ptr %11, align 2
  store i32 %2, ptr %6, align 4, !tbaa !4
  call void @llvm.lifetime.start.p0(i64 4, ptr %7) #6
  store i32 0, ptr %7, align 4, !tbaa !4
  br label %12

12:                                               ; preds = %54, %3
  %13 = load i32, ptr %7, align 4, !tbaa !4
  %14 = icmp slt i32 %13, 8
  br i1 %14, label %15, label %57

15:                                               ; preds = %12
  call void @llvm.lifetime.start.p0(i64 4, ptr %8) #6
  %16 = load i32, ptr %7, align 4, !tbaa !4
  %17 = load i32, ptr %6, align 4, !tbaa !4
  %18 = ashr i32 %17, 4
  %19 = add nsw i32 %16, %18
  store i32 %19, ptr %8, align 4, !tbaa !4
  call void @llvm.lifetime.start.p0(i64 4, ptr %9) #6
  store i32 0, ptr %9, align 4, !tbaa !4
  %20 = load i32, ptr %8, align 4, !tbaa !4
  %21 = add i32 %20, 1
  %22 = icmp ult i32 %21, 8
  br i1 %22, label %23, label %32

23:                                               ; preds = %15
  %24 = getelementptr inbounds nuw %struct.AVInteger, ptr %5, i32 0, i32 0
  %25 = load i32, ptr %8, align 4, !tbaa !4
  %26 = add i32 %25, 1
  %27 = zext i32 %26 to i64
  %28 = getelementptr inbounds nuw [8 x i16], ptr %24, i64 0, i64 %27
  %29 = load i16, ptr %28, align 2, !tbaa !8
  %30 = zext i16 %29 to i32
  %31 = mul i32 %30, 65536
  store i32 %31, ptr %9, align 4, !tbaa !4
  br label %32

32:                                               ; preds = %23, %15
  %33 = load i32, ptr %8, align 4, !tbaa !4
  %34 = icmp ult i32 %33, 8
  br i1 %34, label %35, label %44

35:                                               ; preds = %32
  %36 = getelementptr inbounds nuw %struct.AVInteger, ptr %5, i32 0, i32 0
  %37 = load i32, ptr %8, align 4, !tbaa !4
  %38 = zext i32 %37 to i64
  %39 = getelementptr inbounds nuw [8 x i16], ptr %36, i64 0, i64 %38
  %40 = load i16, ptr %39, align 2, !tbaa !8
  %41 = zext i16 %40 to i32
  %42 = load i32, ptr %9, align 4, !tbaa !4
  %43 = or i32 %42, %41
  store i32 %43, ptr %9, align 4, !tbaa !4
  br label %44

44:                                               ; preds = %35, %32
  %45 = load i32, ptr %9, align 4, !tbaa !4
  %46 = load i32, ptr %6, align 4, !tbaa !4
  %47 = and i32 %46, 15
  %48 = lshr i32 %45, %47
  %49 = trunc i32 %48 to i16
  %50 = getelementptr inbounds nuw %struct.AVInteger, ptr %4, i32 0, i32 0
  %51 = load i32, ptr %7, align 4, !tbaa !4
  %52 = sext i32 %51 to i64
  %53 = getelementptr inbounds [8 x i16], ptr %50, i64 0, i64 %52
  store i16 %49, ptr %53, align 2, !tbaa !8
  call void @llvm.lifetime.end.p0(i64 4, ptr %9) #6
  call void @llvm.lifetime.end.p0(i64 4, ptr %8) #6
  br label %54

54:                                               ; preds = %44
  %55 = load i32, ptr %7, align 4, !tbaa !4
  %56 = add nsw i32 %55, 1
  store i32 %56, ptr %7, align 4, !tbaa !4
  br label %12, !llvm.loop !19

57:                                               ; preds = %12
  call void @llvm.lifetime.end.p0(i64 4, ptr %7) #6
  %58 = getelementptr inbounds nuw %struct.AVInteger, ptr %4, i32 0, i32 0
  %59 = load { i64, i64 }, ptr %58, align 2
  ret { i64, i64 } %59
}