; Function Attrs: mustprogress nofree norecurse nosync nounwind willreturn memory(none) uwtable
define { i64, i64 } @av_shr_i(i64 %0, i64 %1, i32 noundef %2) local_unnamed_addr #0 {
  %4 = alloca %struct.AVInteger, align 8
  %5 = alloca %struct.AVInteger, align 8
  store i64 %0, ptr %5, align 8
  %6 = getelementptr inbounds nuw i8, ptr %5, i64 8
  store i64 %1, ptr %6, align 8
  %7 = ashr i32 %2, 4
  %8 = and i32 %2, 15
  %9 = sext i32 %7 to i64
  br label %10

10:                                               ; preds = %3, %26
  %indvars.iv = phi i64 [ 0, %3 ], [ %indvars.iv.next, %26 ]
  %11 = add nsw i64 %indvars.iv, %9
  %12 = add nsw i64 %11, 1
  %13 = icmp ult i64 %12, 8
  br i1 %13, label %14, label %19

14:                                               ; preds = %10
  %15 = getelementptr inbounds nuw [8 x i16], ptr %5, i64 0, i64 %12
  %16 = load i16, ptr %15, align 2, !tbaa !4
  %17 = zext i16 %16 to i32
  %18 = shl nuw i32 %17, 16
  br label %19

19:                                               ; preds = %14, %10
  %.0 = phi i32 [ %18, %14 ], [ 0, %10 ]
  %20 = icmp ult i64 %11, 8
  br i1 %20, label %21, label %26

21:                                               ; preds = %19
  %22 = getelementptr inbounds nuw [8 x i16], ptr %5, i64 0, i64 %11
  %23 = load i16, ptr %22, align 2, !tbaa !4
  %24 = zext i16 %23 to i32
  %25 = or disjoint i32 %.0, %24
  br label %26

26:                                               ; preds = %21, %19
  %.1 = phi i32 [ %25, %21 ], [ %.0, %19 ]
  %27 = lshr i32 %.1, %8
  %28 = trunc i32 %27 to i16
  %29 = getelementptr inbounds nuw [8 x i16], ptr %4, i64 0, i64 %indvars.iv
  store i16 %28, ptr %29, align 2, !tbaa !4
  %indvars.iv.next = add nuw nsw i64 %indvars.iv, 1
  %exitcond.not = icmp eq i64 %indvars.iv.next, 8
  br i1 %exitcond.not, label %30, label %10, !llvm.loop !16

30:                                               ; preds = %26
  %.fca.0.load = load i64, ptr %4, align 8
  %.fca.0.insert = insertvalue { i64, i64 } poison, i64 %.fca.0.load, 0
  %.fca.1.gep = getelementptr inbounds nuw i8, ptr %4, i64 8
  %.fca.1.load = load i64, ptr %.fca.1.gep, align 8
  %.fca.1.insert = insertvalue { i64, i64 } %.fca.0.insert, i64 %.fca.1.load, 1
  ret { i64, i64 } %.fca.1.insert
}